; Function Attrs: mustprogress nounwind uwtable
define internal void @_ZN12_GLOBAL__N_114CVPLatticeFuncD2Ev(ptr noundef nonnull align 8 captures(none) dereferenceable(392) initializes((0, 8)) %0) unnamed_addr #0 align 2 {
  store ptr getelementptr inbounds nuw inrange(-16, 80) (i8, ptr @_ZTVN12_GLOBAL__N_114CVPLatticeFuncE, i64 16), ptr %0, align 8
  %2 = getelementptr inbounds nuw i8, ptr %0, i64 104
  %3 = getelementptr inbounds nuw i8, ptr %0, i64 112
  %4 = load ptr, ptr %3, align 8
  %5 = load ptr, ptr %2, align 8
  %6 = icmp eq ptr %4, %5
  br i1 %6, label %_ZN4llvm11SmallPtrSetIPNS_8CallBaseELj32EED2Ev.exit, label %7

7:                                                ; preds = %1
  tail call void @free(ptr noundef %4) #21
  br label %_ZN4llvm11SmallPtrSetIPNS_8CallBaseELj32EED2Ev.exit

_ZN4llvm11SmallPtrSetIPNS_8CallBaseELj32EED2Ev.exit: ; preds = %1, %7
  store ptr getelementptr inbounds nuw inrange(-16, 80) (i8, ptr @_ZTVN4llvm23AbstractLatticeFunctionINS_14PointerIntPairIPNS_5ValueELj2EN12_GLOBAL__N_111IPOGroupingENS_21PointerLikeTypeTraitsIS3_EENS_18PointerIntPairInfoIS3_Lj2ES7_EEEENS4_13CVPLatticeValEEE, i64 16), ptr %0, align 8
  %8 = getelementptr inbounds nuw i8, ptr %0, i64 80
  %.val4.i = load ptr, ptr %8, align 8
  %.not.i.i.i.i.i = icmp eq ptr %.val4.i, null
  br i1 %.not.i.i.i.i.i, label %_ZN12_GLOBAL__N_113CVPLatticeValD2Ev.exit.i, label %9

9:                                                ; preds = %_ZN4llvm11SmallPtrSetIPNS_8CallBaseELj32EED2Ev.exit
  %10 = getelementptr inbounds nuw i8, ptr %0, i64 96
  %.val5.i = load ptr, ptr %10, align 8
  %11 = ptrtoint ptr %.val5.i to i64
  %12 = ptrtoint ptr %.val4.i to i64
  %13 = sub i64 %11, %12
  tail call void @_ZdlPvm(ptr noundef nonnull %.val4.i, i64 noundef %13) #24
  br label %_ZN12_GLOBAL__N_113CVPLatticeValD2Ev.exit.i

_ZN12_GLOBAL__N_113CVPLatticeValD2Ev.exit.i:      ; preds = %9, %_ZN4llvm11SmallPtrSetIPNS_8CallBaseELj32EED2Ev.exit
  %14 = getelementptr inbounds nuw i8, ptr %0, i64 48
  %.val2.i = load ptr, ptr %14, align 8
  %.not.i.i.i.i6.i = icmp eq ptr %.val2.i, null
  br i1 %.not.i.i.i.i6.i, label %_ZN12_GLOBAL__N_113CVPLatticeValD2Ev.exit7.i, label %15

15:                                               ; preds = %_ZN12_GLOBAL__N_113CVPLatticeValD2Ev.exit.i
  %16 = getelementptr inbounds nuw i8, ptr %0, i64 64
  %.val3.i = load ptr, ptr %16, align 8
  %17 = ptrtoint ptr %.val3.i to i64
  %18 = ptrtoint ptr %.val2.i to i64
  %19 = sub i64 %17, %18
  tail call void @_ZdlPvm(ptr noundef nonnull %.val2.i, i64 noundef %19) #24
  br label %_ZN12_GLOBAL__N_113CVPLatticeValD2Ev.exit7.i

_ZN12_GLOBAL__N_113CVPLatticeValD2Ev.exit7.i:     ; preds = %15, %_ZN12_GLOBAL__N_113CVPLatticeValD2Ev.exit.i
  %20 = getelementptr inbounds nuw i8, ptr %0, i64 16
  %.val.i = load ptr, ptr %20, align 8
  %.not.i.i.i.i8.i = icmp eq ptr %.val.i, null
  br i1 %.not.i.i.i.i8.i, label %_ZN4llvm23AbstractLatticeFunctionINS_14PointerIntPairIPNS_5ValueELj2EN12_GLOBAL__N_111IPOGroupingENS_21PointerLikeTypeTraitsIS3_EENS_18PointerIntPairInfoIS3_Lj2ES7_EEEENS4_13CVPLatticeValEED2Ev.exit, label %21

21:                                               ; preds = %_ZN12_GLOBAL__N_113CVPLatticeValD2Ev.exit7.i
  %22 = getelementptr inbounds nuw i8, ptr %0, i64 32
  %.val1.i = load ptr, ptr %22, align 8
  %23 = ptrtoint ptr %.val1.i to i64
  %24 = ptrtoint ptr %.val.i to i64
  %25 = sub i64 %23, %24
  tail call void @_ZdlPvm(ptr noundef nonnull %.val.i, i64 noundef %25) #24
  br label %_ZN4llvm23AbstractLatticeFunctionINS_14PointerIntPairIPNS_5ValueELj2EN12_GLOBAL__N_111IPOGroupingENS_21PointerLikeTypeTraitsIS3_EENS_18PointerIntPairInfoIS3_Lj2ES7_EEEENS4_13CVPLatticeValEED2Ev.exit

_ZN4llvm23AbstractLatticeFunctionINS_14PointerIntPairIPNS_5ValueELj2EN12_GLOBAL__N_111IPOGroupingENS_21PointerLikeTypeTraitsIS3_EENS_18PointerIntPairInfoIS3_Lj2ES7_EEEENS4_13CVPLatticeValEED2Ev.exit: ; preds = %_ZN12_GLOBAL__N_113CVPLatticeValD2Ev.exit7.i, %21
  ret void
}